
out.elf:     file format elf32-tradlittlemips


Disassembly of section .config_BFC02FF0:

bfc02ff0 <__config_BFC02FF0>:
bfc02ff0:	ff ff fe fa                                         ....

Disassembly of section .config_BFC02FF4:

bfc02ff4 <__config_BFC02FF4>:
bfc02ff4:	d9 79 f8 ff                                         .y..

Disassembly of section .config_BFC02FF8:

bfc02ff8 <__config_BFC02FF8>:
bfc02ff8:	db ce 6c ff                                         ..l.

Disassembly of section .config_BFC02FFC:

bfc02ffc <__config_BFC02FFC>:
bfc02ffc:	ff ff ff 7e                                         ...~

Disassembly of section .reset:

bd001970 <_reset>:
bd001970:	0f40065e 	jal	bd001978 <_startup>
bd001974:	00000000 	nop

bd001978 <_startup>:
bd001978:	401a6000 	mfc0	k0,c0_status
bd00197c:	7f5a04c0 	ext	k0,k0,0x13,0x1
bd001980:	13400005 	beqz	k0,bd001998 <_no_nmi>
bd001984:	00000000 	nop
bd001988:	3c1a9d00 	lui	k0,0x9d00
bd00198c:	275a2974 	addiu	k0,k0,10612
bd001990:	03400008 	jr	k0
bd001994:	00000000 	nop

bd001998 <_no_nmi>:
bd001998:	3c1da002 	lui	sp,0xa002
bd00199c:	27bdfff8 	addiu	sp,sp,-8
bd0019a0:	3c1ca000 	lui	gp,0xa000
bd0019a4:	279c7ff0 	addiu	gp,gp,32752
bd0019a8:	40096002 	mfc0	t1,c0_srsctl
bd0019ac:	01205820 	add	t3,t1,zero
bd0019b0:	7d2a1e80 	ext	t2,t1,0x1a,0x4
bd0019b4:	7d494984 	ins	t1,t2,0x6,0x4
bd0019b8:	40896002 	mtc0	t1,c0_srsctl
bd0019bc:	000000c0 	ehb
bd0019c0:	41dce000 	wrpgpr	gp,gp
bd0019c4:	408b6002 	mtc0	t3,c0_srsctl
bd0019c8:	000000c0 	ehb
bd0019cc:	3c089d00 	lui	t0,0x9d00
bd0019d0:	250829c4 	addiu	t0,t0,10692
bd0019d4:	0100f809 	jalr	t0
bd0019d8:	00000000 	nop

bd0019dc <_start_bss_init>:
bd0019dc:	3c08a000 	lui	t0,0xa000
bd0019e0:	25080008 	addiu	t0,t0,8
bd0019e4:	3c09a000 	lui	t1,0xa000
bd0019e8:	2529000c 	addiu	t1,t1,12
bd0019ec:	10000006 	b	bd001a08 <_bss_check>
bd0019f0:	00000000 	nop

bd0019f4 <_bss_init>:
bd0019f4:	ad000000 	sw	zero,0(t0)
bd0019f8:	ad000004 	sw	zero,4(t0)
bd0019fc:	ad000008 	sw	zero,8(t0)
bd001a00:	ad00000c 	sw	zero,12(t0)
bd001a04:	25080010 	addiu	t0,t0,16

bd001a08 <_bss_check>:
bd001a08:	0109082b 	sltu	at,t0,t1
bd001a0c:	1420fff9 	bnez	at,bd0019f4 <_bss_init>
bd001a10:	00000000 	nop
bd001a14:	3c089d00 	lui	t0,0x9d00
bd001a18:	25082508 	addiu	t0,t0,9480
bd001a1c:	0100f809 	jalr	t0
bd001a20:	00000000 	nop
bd001a24:	3c090000 	lui	t1,0x0
bd001a28:	25290000 	addiu	t1,t1,0
bd001a2c:	11200010 	beqz	t1,bd001a70 <_ramfunc_done>
bd001a30:	00000000 	nop
bd001a34:	3c090002 	lui	t1,0x2
bd001a38:	25290000 	addiu	t1,t1,0
bd001a3c:	3c0abf88 	lui	t2,0xbf88
bd001a40:	254a2010 	addiu	t2,t2,8208
bd001a44:	ad490000 	sw	t1,0(t2)
bd001a48:	3c090002 	lui	t1,0x2
bd001a4c:	25290000 	addiu	t1,t1,0
bd001a50:	3c0abf88 	lui	t2,0xbf88
bd001a54:	254a2020 	addiu	t2,t2,8224
bd001a58:	ad490000 	sw	t1,0(t2)
bd001a5c:	3c090002 	lui	t1,0x2
bd001a60:	25290000 	addiu	t1,t1,0
bd001a64:	3c0abf88 	lui	t2,0xbf88
bd001a68:	254a2030 	addiu	t2,t2,8240
bd001a6c:	ad490000 	sw	t1,0(t2)

bd001a70 <_ramfunc_done>:
bd001a70:	40804800 	mtc0	zero,c0_count
bd001a74:	240affff 	li	t2,-1
bd001a78:	408a5800 	mtc0	t2,c0_compare
bd001a7c:	3c080040 	lui	t0,0x40
bd001a80:	400a6000 	mfc0	t2,c0_status
bd001a84:	010a5025 	or	t2,t0,t2
bd001a88:	408a6000 	mtc0	t2,c0_status
bd001a8c:	3c099d00 	lui	t1,0x9d00
bd001a90:	25290000 	addiu	t1,t1,0
bd001a94:	000000c0 	ehb
bd001a98:	40897801 	mtc0	t1,c0_ebase
bd001a9c:	3c090000 	lui	t1,0x0
bd001aa0:	25290001 	addiu	t1,t1,1
bd001aa4:	240a0000 	li	t2,0
bd001aa8:	7d2a4944 	ins	t2,t1,0x5,0x5
bd001aac:	408a6001 	mtc0	t2,c0_intctl
bd001ab0:	3c090080 	lui	t1,0x80
bd001ab4:	40896800 	mtc0	t1,c0_cause
bd001ab8:	40088000 	mfc0	t0,c0_config
bd001abc:	7d090580 	ext	t1,t0,0x16,0x1
bd001ac0:	00094c40 	sll	t1,t1,0x11
bd001ac4:	40086000 	mfc0	t0,c0_status
bd001ac8:	3c010058 	lui	at,0x58
bd001acc:	01014024 	and	t0,t0,at
bd001ad0:	01284025 	or	t0,t1,t0
bd001ad4:	40886000 	mtc0	t0,c0_status
bd001ad8:	000000c0 	ehb
bd001adc:	3c089d00 	lui	t0,0x9d00
bd001ae0:	250829cc 	addiu	t0,t0,10700
bd001ae4:	0100f809 	jalr	t0
bd001ae8:	00000000 	nop
bd001aec:	40086000 	mfc0	t0,c0_status
bd001af0:	3c01ffbf 	lui	at,0xffbf
bd001af4:	3421ffff 	ori	at,at,0xffff
bd001af8:	01014024 	and	t0,t0,at
bd001afc:	40886000 	mtc0	t0,c0_status
bd001b00:	30840000 	andi	a0,a0,0x0
bd001b04:	30a50000 	andi	a1,a1,0x0
bd001b08:	3c089d00 	lui	t0,0x9d00
bd001b0c:	250826e4 	addiu	t0,t0,9956
bd001b10:	01000008 	jr	t0
bd001b14:	00000000 	nop

Disassembly of section .bev_excpt:

bd001cf0 <_bev_exception>:
bd001cf0:	3c1a9d00 	lui	k0,0x9d00
bd001cf4:	275a27d0 	addiu	k0,k0,10192
bd001cf8:	03400008 	jr	k0
bd001cfc:	00000000 	nop

Disassembly of section .app_excpt:

9d000180 <_gen_exception>:
9d000180:	3c1a9d00 	lui	k0,0x9d00
9d000184:	275a22c4 	addiu	k0,k0,8900
9d000188:	03400008 	jr	k0
9d00018c:	00000000 	nop

Disassembly of section .vector_0:

9d000200 <__vector_dispatch_0>:
9d000200:	0b400a18 	j	9d002860 <.LFE0>
9d000204:	00000000 	nop

Disassembly of section .vector_1:

9d000220 <__vector_dispatch_1>:
9d000220:	0b400a18 	j	9d002860 <.LFE0>
9d000224:	00000000 	nop

Disassembly of section .vector_2:

9d000240 <__vector_dispatch_2>:
9d000240:	0b400a18 	j	9d002860 <.LFE0>
9d000244:	00000000 	nop

Disassembly of section .vector_3:

9d000260 <__vector_dispatch_3>:
9d000260:	0b400a18 	j	9d002860 <.LFE0>
9d000264:	00000000 	nop

Disassembly of section .vector_4:

9d000280 <__vector_dispatch_4>:
9d000280:	0b400a18 	j	9d002860 <.LFE0>
9d000284:	00000000 	nop

Disassembly of section .vector_5:

9d0002a0 <__vector_dispatch_5>:
9d0002a0:	0b400a18 	j	9d002860 <.LFE0>
9d0002a4:	00000000 	nop

Disassembly of section .vector_6:

9d0002c0 <__vector_dispatch_6>:
9d0002c0:	0b400a18 	j	9d002860 <.LFE0>
9d0002c4:	00000000 	nop

Disassembly of section .vector_7:

9d0002e0 <__vector_dispatch_7>:
9d0002e0:	0b400a18 	j	9d002860 <.LFE0>
9d0002e4:	00000000 	nop

Disassembly of section .vector_8:

9d000300 <__vector_dispatch_8>:
9d000300:	0b400a18 	j	9d002860 <.LFE0>
9d000304:	00000000 	nop

Disassembly of section .vector_9:

9d000320 <__vector_dispatch_9>:
9d000320:	0b400a18 	j	9d002860 <.LFE0>
9d000324:	00000000 	nop

Disassembly of section .vector_10:

9d000340 <__vector_dispatch_10>:
9d000340:	0b400a18 	j	9d002860 <.LFE0>
9d000344:	00000000 	nop

Disassembly of section .vector_11:

9d000360 <__vector_dispatch_11>:
9d000360:	0b400a18 	j	9d002860 <.LFE0>
9d000364:	00000000 	nop

Disassembly of section .vector_12:

9d000380 <__vector_dispatch_12>:
9d000380:	0b400a18 	j	9d002860 <.LFE0>
9d000384:	00000000 	nop

Disassembly of section .vector_13:

9d0003a0 <__vector_dispatch_13>:
9d0003a0:	0b400a18 	j	9d002860 <.LFE0>
9d0003a4:	00000000 	nop

Disassembly of section .vector_14:

9d0003c0 <__vector_dispatch_14>:
9d0003c0:	0b400a18 	j	9d002860 <.LFE0>
9d0003c4:	00000000 	nop

Disassembly of section .vector_15:

9d0003e0 <__vector_dispatch_15>:
9d0003e0:	0b400a18 	j	9d002860 <.LFE0>
9d0003e4:	00000000 	nop

Disassembly of section .vector_16:

9d000400 <__vector_dispatch_16>:
9d000400:	0b400a18 	j	9d002860 <.LFE0>
9d000404:	00000000 	nop

Disassembly of section .vector_17:

9d000420 <__vector_dispatch_17>:
9d000420:	0b400a18 	j	9d002860 <.LFE0>
9d000424:	00000000 	nop

Disassembly of section .vector_18:

9d000440 <__vector_dispatch_18>:
9d000440:	0b400a18 	j	9d002860 <.LFE0>
9d000444:	00000000 	nop

Disassembly of section .vector_19:

9d000460 <__vector_dispatch_19>:
9d000460:	0b400a18 	j	9d002860 <.LFE0>
9d000464:	00000000 	nop

Disassembly of section .vector_20:

9d000480 <__vector_dispatch_20>:
9d000480:	0b400a18 	j	9d002860 <.LFE0>
9d000484:	00000000 	nop

Disassembly of section .vector_21:

9d0004a0 <__vector_dispatch_21>:
9d0004a0:	0b400a18 	j	9d002860 <.LFE0>
9d0004a4:	00000000 	nop

Disassembly of section .vector_22:

9d0004c0 <__vector_dispatch_22>:
9d0004c0:	0b400a18 	j	9d002860 <.LFE0>
9d0004c4:	00000000 	nop

Disassembly of section .vector_23:

9d0004e0 <__vector_dispatch_23>:
9d0004e0:	0b400a18 	j	9d002860 <.LFE0>
9d0004e4:	00000000 	nop

Disassembly of section .vector_24:

9d000500 <__vector_dispatch_24>:
9d000500:	0b400a18 	j	9d002860 <.LFE0>
9d000504:	00000000 	nop

Disassembly of section .vector_25:

9d000520 <__vector_dispatch_25>:
9d000520:	0b400a18 	j	9d002860 <.LFE0>
9d000524:	00000000 	nop

Disassembly of section .vector_26:

9d000540 <__vector_dispatch_26>:
9d000540:	0b400a18 	j	9d002860 <.LFE0>
9d000544:	00000000 	nop

Disassembly of section .vector_27:

9d000560 <__vector_dispatch_27>:
9d000560:	0b400a18 	j	9d002860 <.LFE0>
9d000564:	00000000 	nop

Disassembly of section .vector_28:

9d000580 <__vector_dispatch_28>:
9d000580:	0b400a18 	j	9d002860 <.LFE0>
9d000584:	00000000 	nop

Disassembly of section .vector_29:

9d0005a0 <__vector_dispatch_29>:
9d0005a0:	0b400a18 	j	9d002860 <.LFE0>
9d0005a4:	00000000 	nop

Disassembly of section .vector_30:

9d0005c0 <__vector_dispatch_30>:
9d0005c0:	0b400a18 	j	9d002860 <.LFE0>
9d0005c4:	00000000 	nop

Disassembly of section .vector_31:

9d0005e0 <__vector_dispatch_31>:
9d0005e0:	0b400a18 	j	9d002860 <.LFE0>
9d0005e4:	00000000 	nop

Disassembly of section .vector_32:

9d000600 <__vector_dispatch_32>:
9d000600:	0b400a18 	j	9d002860 <.LFE0>
9d000604:	00000000 	nop

Disassembly of section .vector_33:

9d000620 <__vector_dispatch_33>:
9d000620:	0b400a18 	j	9d002860 <.LFE0>
9d000624:	00000000 	nop

Disassembly of section .vector_34:

9d000640 <__vector_dispatch_34>:
9d000640:	0b400a18 	j	9d002860 <.LFE0>
9d000644:	00000000 	nop

Disassembly of section .vector_35:

9d000660 <__vector_dispatch_35>:
9d000660:	0b400a18 	j	9d002860 <.LFE0>
9d000664:	00000000 	nop

Disassembly of section .vector_36:

9d000680 <__vector_dispatch_36>:
9d000680:	0b400a18 	j	9d002860 <.LFE0>
9d000684:	00000000 	nop

Disassembly of section .vector_37:

9d0006a0 <__vector_dispatch_37>:
9d0006a0:	0b400a18 	j	9d002860 <.LFE0>
9d0006a4:	00000000 	nop

Disassembly of section .vector_38:

9d0006c0 <__vector_dispatch_38>:
9d0006c0:	0b400a18 	j	9d002860 <.LFE0>
9d0006c4:	00000000 	nop

Disassembly of section .vector_39:

9d0006e0 <__vector_dispatch_39>:
9d0006e0:	0b400a18 	j	9d002860 <.LFE0>
9d0006e4:	00000000 	nop

Disassembly of section .vector_40:

9d000700 <__vector_dispatch_40>:
9d000700:	0b400a18 	j	9d002860 <.LFE0>
9d000704:	00000000 	nop

Disassembly of section .vector_41:

9d000720 <__vector_dispatch_41>:
9d000720:	0b400a18 	j	9d002860 <.LFE0>
9d000724:	00000000 	nop

Disassembly of section .vector_42:

9d000740 <__vector_dispatch_42>:
9d000740:	0b400a18 	j	9d002860 <.LFE0>
9d000744:	00000000 	nop

Disassembly of section .vector_43:

9d000760 <__vector_dispatch_43>:
9d000760:	0b400a18 	j	9d002860 <.LFE0>
9d000764:	00000000 	nop

Disassembly of section .vector_44:

9d000780 <__vector_dispatch_44>:
9d000780:	0b400a18 	j	9d002860 <.LFE0>
9d000784:	00000000 	nop

Disassembly of section .vector_45:

9d0007a0 <__vector_dispatch_45>:
9d0007a0:	0b400a18 	j	9d002860 <.LFE0>
9d0007a4:	00000000 	nop

Disassembly of section .vector_46:

9d0007c0 <__vector_dispatch_46>:
9d0007c0:	0b400a18 	j	9d002860 <.LFE0>
9d0007c4:	00000000 	nop

Disassembly of section .vector_47:

9d0007e0 <__vector_dispatch_47>:
9d0007e0:	0b400a18 	j	9d002860 <.LFE0>
9d0007e4:	00000000 	nop

Disassembly of section .vector_48:

9d000800 <__vector_dispatch_48>:
9d000800:	0b400a18 	j	9d002860 <.LFE0>
9d000804:	00000000 	nop

Disassembly of section .vector_49:

9d000820 <__vector_dispatch_49>:
9d000820:	0b400a18 	j	9d002860 <.LFE0>
9d000824:	00000000 	nop

Disassembly of section .vector_50:

9d000840 <__vector_dispatch_50>:
9d000840:	0b400a18 	j	9d002860 <.LFE0>
9d000844:	00000000 	nop

Disassembly of section .vector_51:

9d000860 <__vector_dispatch_51>:
9d000860:	0b400a18 	j	9d002860 <.LFE0>
9d000864:	00000000 	nop

Disassembly of section ._debug_exception:

bfc00480 <__DbgExecReturn>:
bfc00480:	409bf800 	mtc0	k1,c0_desave
bfc00484:	000000c0 	ehb
bfc00488:	3c1b9d00 	lui	k1,0x9d00
bfc0048c:	277b28a8 	addiu	k1,k1,10408
bfc00490:	13600002 	beqz	k1,bfc0049c <__DbgExecReturn+0x1c>
bfc00494:	00000000 	nop
bfc00498:	409bc000 	mtc0	k1,c0_depc
bfc0049c:	401bf800 	mfc0	k1,c0_desave
bfc004a0:	000000c0 	ehb
bfc004a4:	4200001f 	deret
bfc004a8:	00000000 	nop

Disassembly of section .text:

9d001e00 <NU32_Startup>:

// Perform startup routines:
//  Make NU32_LED1 and NU32_LED2 pins outputs (NU32_USER is by default an input)
//  Initialize the serial port - UART3 (no interrupt) 
//  Enable interrupts
void NU32_Startup() {
9d001e00:	27bdfff8 	addiu	sp,sp,-8
9d001e04:	afbf0004 	sw	ra,4(sp)
  // disable interrupts
  __builtin_disable_interrupts();
9d001e08:	41626000 	di	v0
9d001e0c:	000000c0 	ehb
  // see Chapter 2 "CPU for Devices with M4K Core" of the PIC32 reference manual
  // most of the other bits have prescribed values
  // microchip does not provide a _CP0_SET_CONFIG macro, so we directly use
  // the compiler built-in command _mtc0
  // to disable cache, use 0xa4210582 
  __builtin_mtc0(_CP0_CONFIG, _CP0_CONFIG_SELECT, 0xa4210583); 
9d001e10:	3c02a421 	lui	v0,0xa421
9d001e14:	24420583 	addiu	v0,v0,1411
9d001e18:	40828000 	mtc0	v0,c0_config
9d001e1c:	000000c0 	ehb
  
  // set the prefectch cache wait state to 2, as per the
  // electrical characteristics data sheet
  CHECONbits.PFMWS = 0x2;   
9d001e20:	3c02bf88 	lui	v0,0xbf88
9d001e24:	8c434000 	lw	v1,16384(v0)
9d001e28:	24050002 	li	a1,2
9d001e2c:	7ca31004 	ins	v1,a1,0x0,0x3
9d001e30:	ac434000 	sw	v1,16384(v0)

  //enable prefetch for cacheable and noncacheable memory
  CHECONbits.PREFEN = 0x3; 
9d001e34:	8c434000 	lw	v1,16384(v0)
9d001e38:	24040003 	li	a0,3
9d001e3c:	7c832904 	ins	v1,a0,0x4,0x2
9d001e40:	ac434000 	sw	v1,16384(v0)

  // 0 data RAM access wait states
  BMXCONbits.BMXWSDRM = 0x0;
9d001e44:	3c02bf88 	lui	v0,0xbf88
9d001e48:	8c432000 	lw	v1,8192(v0)
9d001e4c:	7c033184 	ins	v1,zero,0x6,0x1
9d001e50:	ac432000 	sw	v1,8192(v0)
  
  // enable multi vector interrupts
  INTCONbits.MVEC = 0x1;
9d001e54:	3c02bf88 	lui	v0,0xbf88
9d001e58:	8c461000 	lw	a2,4096(v0)
9d001e5c:	24030001 	li	v1,1
9d001e60:	7c666304 	ins	a2,v1,0xc,0x1
9d001e64:	ac461000 	sw	a2,4096(v0)

  // disable JTAG to get B10, B11, B12 and B13 back
  DDPCONbits.JTAGEN = 0;
9d001e68:	3c02bf81 	lui	v0,0xbf81
9d001e6c:	9046f200 	lbu	a2,-3584(v0)
9d001e70:	7c0618c4 	ins	a2,zero,0x3,0x1
9d001e74:	a046f200 	sb	a2,-3584(v0)

  TRISFCLR = 0x0003;  // Make F0 and F1 outputs (LED1 and LED2)
9d001e78:	3c02bf88 	lui	v0,0xbf88
9d001e7c:	ac446144 	sw	a0,24900(v0)
  NU32_LED1 = 1;      // LED1 is off
9d001e80:	3c02bf88 	lui	v0,0xbf88
9d001e84:	90446160 	lbu	a0,24928(v0)
9d001e88:	7c640004 	ins	a0,v1,0x0,0x1
9d001e8c:	a0446160 	sb	a0,24928(v0)
  NU32_LED2 = 0;      // LED2 is on
9d001e90:	90446160 	lbu	a0,24928(v0)
9d001e94:	7c040844 	ins	a0,zero,0x1,0x1
9d001e98:	a0446160 	sb	a0,24928(v0)

  // turn on UART3 without an interrupt
  U3MODEbits.BRGH = 0; // set baud to NU32_DESIRED_BAUD
9d001e9c:	3c02bf80 	lui	v0,0xbf80
9d001ea0:	94446400 	lhu	a0,25600(v0)
9d001ea4:	7c0418c4 	ins	a0,zero,0x3,0x1
9d001ea8:	a4446400 	sh	a0,25600(v0)
  U3BRG = ((NU32_SYS_FREQ / NU32_DESIRED_BAUD) / 16) - 1;
9d001eac:	24060014 	li	a2,20
9d001eb0:	3c04bf80 	lui	a0,0xbf80
9d001eb4:	ac866440 	sw	a2,25664(a0)

  // 8 bit, no parity bit, and 1 stop bit (8N1 setup)
  U3MODEbits.PDSEL = 0;
9d001eb8:	94446400 	lhu	a0,25600(v0)
9d001ebc:	7c041044 	ins	a0,zero,0x1,0x2
9d001ec0:	a4446400 	sh	a0,25600(v0)
  U3MODEbits.STSEL = 0;
9d001ec4:	94446400 	lhu	a0,25600(v0)
9d001ec8:	7c040004 	ins	a0,zero,0x0,0x1
9d001ecc:	a4446400 	sh	a0,25600(v0)

  // configure TX & RX pins as output & input pins
  U3STAbits.UTXEN = 1;
9d001ed0:	3c04bf80 	lui	a0,0xbf80
9d001ed4:	8c866410 	lw	a2,25616(a0)
9d001ed8:	7c665284 	ins	a2,v1,0xa,0x1
9d001edc:	ac866410 	sw	a2,25616(a0)
  U3STAbits.URXEN = 1;
9d001ee0:	8c866410 	lw	a2,25616(a0)
9d001ee4:	7c666304 	ins	a2,v1,0xc,0x1
9d001ee8:	ac866410 	sw	a2,25616(a0)
  // configure hardware flow control using RTS and CTS
  U3MODEbits.UEN = 2;
9d001eec:	94446400 	lhu	a0,25600(v0)
9d001ef0:	7ca44a04 	ins	a0,a1,0x8,0x2
9d001ef4:	a4446400 	sh	a0,25600(v0)

  // enable the uart
  U3MODEbits.ON = 1;
9d001ef8:	94446400 	lhu	a0,25600(v0)
9d001efc:	7c647bc4 	ins	a0,v1,0xf,0x1
9d001f00:	a4446400 	sh	a0,25600(v0)

  __builtin_enable_interrupts();
9d001f04:	41626020 	ei	v0
}
9d001f08:	8fbf0004 	lw	ra,4(sp)
9d001f0c:	03e00008 	jr	ra
9d001f10:	27bd0008 	addiu	sp,sp,8

9d001f14 <NU32_ReadUART3>:
// Read from UART3
// block other functions until you get a '\r' or '\n'
// send the pointer to your char array and the number of elements in the array
void NU32_ReadUART3(char * message, int maxLength) {
  char data = 0;
  int complete = 0, num_bytes = 0;
9d001f14:	00003021 	move	a2,zero
  // loop until you get a '\r' or '\n'
  while (!complete) {
    if (U3STAbits.URXDA) { // if data is available
9d001f18:	3c03bf80 	lui	v1,0xbf80
      data = U3RXREG;      // read the data
9d001f1c:	3c08bf80 	lui	t0,0xbf80
      if ((data == '\n') || (data == '\r')) {
9d001f20:	2407000a 	li	a3,10
9d001f24:	0b4007d9 	j	9d001f64 <NU32_ReadUART3+0x50>
9d001f28:	2409000d 	li	t1,13
void NU32_ReadUART3(char * message, int maxLength) {
  char data = 0;
  int complete = 0, num_bytes = 0;
  // loop until you get a '\r' or '\n'
  while (!complete) {
    if (U3STAbits.URXDA) { // if data is available
9d001f2c:	8c626410 	lw	v0,25616(v1)
9d001f30:	30420001 	andi	v0,v0,0x1
9d001f34:	1040fffd 	beqz	v0,9d001f2c <NU32_ReadUART3+0x18>
9d001f38:	00000000 	nop
      data = U3RXREG;      // read the data
9d001f3c:	8d026430 	lw	v0,25648(t0)
9d001f40:	7c021420 	seb	v0,v0
      if ((data == '\n') || (data == '\r')) {
9d001f44:	5047000e 	beql	v0,a3,9d001f80 <NU32_ReadUART3+0x6c>
9d001f48:	00862021 	addu	a0,a0,a2
9d001f4c:	1049000b 	beq	v0,t1,9d001f7c <NU32_ReadUART3+0x68>
9d001f50:	00865021 	addu	t2,a0,a2
        complete = 1;
      } else {
        message[num_bytes] = data;
9d001f54:	a1420000 	sb	v0,0(t2)
        ++num_bytes;
9d001f58:	24c60001 	addiu	a2,a2,1
        // roll over if the array is too small
        if (num_bytes >= maxLength) {
9d001f5c:	00c5102a 	slt	v0,a2,a1
          num_bytes = 0;
9d001f60:	0002300a 	movz	a2,zero,v0
void NU32_ReadUART3(char * message, int maxLength) {
  char data = 0;
  int complete = 0, num_bytes = 0;
  // loop until you get a '\r' or '\n'
  while (!complete) {
    if (U3STAbits.URXDA) { // if data is available
9d001f64:	8c626410 	lw	v0,25616(v1)
9d001f68:	30420001 	andi	v0,v0,0x1
9d001f6c:	1040ffef 	beqz	v0,9d001f2c <NU32_ReadUART3+0x18>
9d001f70:	00000000 	nop
9d001f74:	0b4007cf 	j	9d001f3c <NU32_ReadUART3+0x28>
9d001f78:	00000000 	nop
        }
      }
    }
  }
  // end the string
  message[num_bytes] = '\0';
9d001f7c:	00862021 	addu	a0,a0,a2
9d001f80:	03e00008 	jr	ra
9d001f84:	a0800000 	sb	zero,0(a0)

9d001f88 <NU32_WriteUART3>:
}

// Write a character array using UART3
void NU32_WriteUART3(const char * string) {
  while (*string != '\0') {
9d001f88:	80850000 	lb	a1,0(a0)
9d001f8c:	10a0000b 	beqz	a1,9d001fbc <NU32_WriteUART3+0x34>
9d001f90:	3c03bf80 	lui	v1,0xbf80
    while (U3STAbits.UTXBF) {
      ; // wait until tx buffer isn't full
    }
    U3TXREG = *string;
9d001f94:	3c06bf80 	lui	a2,0xbf80
}

// Write a character array using UART3
void NU32_WriteUART3(const char * string) {
  while (*string != '\0') {
    while (U3STAbits.UTXBF) {
9d001f98:	8c626410 	lw	v0,25616(v1)
9d001f9c:	30420200 	andi	v0,v0,0x200
9d001fa0:	1440fffd 	bnez	v0,9d001f98 <NU32_WriteUART3+0x10>
9d001fa4:	00000000 	nop
      ; // wait until tx buffer isn't full
    }
    U3TXREG = *string;
9d001fa8:	acc56420 	sw	a1,25632(a2)
    ++string;
9d001fac:	24840001 	addiu	a0,a0,1
  message[num_bytes] = '\0';
}

// Write a character array using UART3
void NU32_WriteUART3(const char * string) {
  while (*string != '\0') {
9d001fb0:	80850000 	lb	a1,0(a0)
9d001fb4:	14a0fff8 	bnez	a1,9d001f98 <NU32_WriteUART3+0x10>
9d001fb8:	00000000 	nop
9d001fbc:	03e00008 	jr	ra
9d001fc0:	00000000 	nop

Disassembly of section .dinit:

9d001fc4 <.dinit>:
9d001fc4:	a000000c 	sb	zero,12(zero)
9d001fc8:	000000d4 	0xd4
9d001fcc:	00000001 	movf	zero,zero,$fcc0
9d001fd0:	a0000070 	sb	zero,112(zero)
9d001fd4:	a000008c 	sb	zero,140(zero)
9d001fd8:	a00000a8 	sb	zero,168(zero)
9d001fdc:	a000006c 	sb	zero,108(zero)
9d001fe0:	a00000e0 	sb	zero,224(zero)
9d001fe4:	00000001 	movf	zero,zero,$fcc0
	...
9d002034:	ffffffff 	sdc3	$31,-1(ra)
9d002038:	ffffffff 	sdc3	$31,-1(ra)
9d00203c:	00000000 	nop
9d002040:	00000040 	ssnop
9d002044:	00001009 	jalr	v0,zero
9d002048:	00000000 	nop
9d00204c:	9d00298c 	0x9d00298c
9d002050:	ffffffff 	sdc3	$31,-1(ra)
	...
9d002060:	00011002 	srl	v0,at,0x0
9d002064:	00000000 	nop
9d002068:	9d00298c 	0x9d00298c
9d00206c:	ffffffff 	sdc3	$31,-1(ra)
	...
9d00207c:	00020002 	srl	zero,v0,0x0
9d002080:	00000000 	nop
9d002084:	9d00298c 	0x9d00298c
9d002088:	fffffffd 	sdc3	$31,-3(ra)
	...
9d0020a4:	a00000e0 	sb	zero,224(zero)
9d0020a8:	00000088 	0x88
9d0020ac:	00000000 	nop
9d0020b0:	a0000000 	sb	zero,0(zero)
9d0020b4:	00000004 	sllv	zero,zero,zero
9d0020b8:	00000001 	movf	zero,zero,$fcc0
9d0020bc:	a000000c 	sb	zero,12(zero)
9d0020c0:	a0000008 	sb	zero,8(zero)
9d0020c4:	00000004 	sllv	zero,zero,zero
9d0020c8:	00000000 	nop
9d0020cc:	a0000004 	sb	zero,4(zero)
9d0020d0:	00000004 	sllv	zero,zero,zero
9d0020d4:	00000001 	movf	zero,zero,$fcc0
9d0020d8:	00000002 	srl	zero,zero,0x0
9d0020dc:	00000000 	nop
9d0020e0:	22222222 	addi	v0,s1,8738

Disassembly of section .text._flsbuf_simple:

9d0020e4 <_flsbuf_simple>:
9d0020e4:	27bdffd8 	addiu	sp,sp,-40
9d0020e8:	afbf0024 	sw	ra,36(sp)
9d0020ec:	afb10020 	sw	s1,32(sp)
9d0020f0:	afb0001c 	sw	s0,28(sp)
9d0020f4:	00a08021 	move	s0,a1
9d0020f8:	8ca2000c 	lw	v0,12(a1)
9d0020fc:	1040002d 	beqz	v0,9d0021b4 <_flsbuf_simple+0xd0>
9d002100:	00808821 	move	s1,a0
9d002104:	8ca20000 	lw	v0,0(a1)
9d002108:	24420001 	addiu	v0,v0,1
9d00210c:	2403ffff 	li	v1,-1
9d002110:	1043001e 	beq	v0,v1,9d00218c <_flsbuf_simple+0xa8>
9d002114:	aca20000 	sw	v0,0(a1)
9d002118:	0f400963 	jal	9d00258c <_fflush_simple>
9d00211c:	02002021 	move	a0,s0
9d002120:	8e040000 	lw	a0,0(s0)
9d002124:	8e020004 	lw	v0,4(s0)
9d002128:	2484ffff 	addiu	a0,a0,-1
9d00212c:	24430001 	addiu	v1,v0,1
9d002130:	ae040000 	sw	a0,0(s0)
9d002134:	ae030004 	sw	v1,4(s0)
9d002138:	a0510000 	sb	s1,0(v0)
9d00213c:	2402000a 	li	v0,10
9d002140:	52220007 	beql	s1,v0,9d002160 <_flsbuf_simple+0x7c>
9d002144:	96020010 	lhu	v0,16(s0)
9d002148:	02201021 	move	v0,s1
9d00214c:	8fbf0024 	lw	ra,36(sp)
9d002150:	8fb10020 	lw	s1,32(sp)
9d002154:	8fb0001c 	lw	s0,28(sp)
9d002158:	03e00008 	jr	ra
9d00215c:	27bd0028 	addiu	sp,sp,40
9d002160:	30420008 	andi	v0,v0,0x8
9d002164:	1040fff9 	beqz	v0,9d00214c <_flsbuf_simple+0x68>
9d002168:	02201021 	move	v0,s1
9d00216c:	0f400963 	jal	9d00258c <_fflush_simple>
9d002170:	02002021 	move	a0,s0
9d002174:	02201021 	move	v0,s1
9d002178:	8fbf0024 	lw	ra,36(sp)
9d00217c:	8fb10020 	lw	s1,32(sp)
9d002180:	8fb0001c 	lw	s0,28(sp)
9d002184:	03e00008 	jr	ra
9d002188:	27bd0028 	addiu	sp,sp,40
9d00218c:	8ca20008 	lw	v0,8(a1)
9d002190:	1440ffe1 	bnez	v0,9d002118 <_flsbuf_simple+0x34>
9d002194:	00000000 	nop
9d002198:	94a20010 	lhu	v0,16(a1)
9d00219c:	aca00004 	sw	zero,4(a1)
9d0021a0:	aca0000c 	sw	zero,12(a1)
9d0021a4:	34420010 	ori	v0,v0,0x10
9d0021a8:	aca00000 	sw	zero,0(a1)
9d0021ac:	0b400846 	j	9d002118 <_flsbuf_simple+0x34>
9d0021b0:	a4a20010 	sh	v0,16(a1)
9d0021b4:	27a40010 	addiu	a0,sp,16
9d0021b8:	24050001 	li	a1,1
9d0021bc:	0f4009e1 	jal	9d002784 <_mon_write>
9d0021c0:	a3b10010 	sb	s1,16(sp)
9d0021c4:	ae000000 	sw	zero,0(s0)
9d0021c8:	02201021 	move	v0,s1
9d0021cc:	8fbf0024 	lw	ra,36(sp)
9d0021d0:	8fb10020 	lw	s1,32(sp)
9d0021d4:	8fb0001c 	lw	s0,28(sp)
9d0021d8:	03e00008 	jr	ra
9d0021dc:	27bd0028 	addiu	sp,sp,40

Disassembly of section .text._mon_getc:

9d0021e0 <_mon_getc>:
9d0021e0:	27bdffe8 	addiu	sp,sp,-24

9d0021e4 <.LCFI0>:
9d0021e4:	afbf0014 	sw	ra,20(sp)
9d0021e8:	3c02a000 	lui	v0,0xa000
9d0021ec:	8c420004 	lw	v0,4(v0)
9d0021f0:	1440000a 	bnez	v0,9d00221c <.LCFI0+0x38>
9d0021f4:	24030002 	li	v1,2
9d0021f8:	3c020000 	lui	v0,0x0
9d0021fc:	24420000 	addiu	v0,v0,0
9d002200:	10400029 	beqz	v0,9d0022a8 <.LCFI0+0xc4>
9d002204:	3c020000 	lui	v0,0x0
9d002208:	0c000000 	jal	90000000 <_bmxdudba_address+0x8ffe0000>
9d00220c:	00000000 	nop
9d002210:	8fbf0014 	lw	ra,20(sp)
9d002214:	03e00008 	jr	ra
9d002218:	27bd0018 	addiu	sp,sp,24
9d00221c:	1043001c 	beq	v0,v1,9d002290 <.LCFI0+0xac>
9d002220:	3c02bf80 	lui	v0,0xbf80
9d002224:	3c02bf80 	lui	v0,0xbf80
9d002228:	8c426000 	lw	v0,24576(v0)
9d00222c:	3c05bf80 	lui	a1,0xbf80
9d002230:	24a56030 	addiu	a1,a1,24624
9d002234:	3c04bf80 	lui	a0,0xbf80
9d002238:	24846010 	addiu	a0,a0,24592
9d00223c:	30428000 	andi	v0,v0,0x8000
9d002240:	14400003 	bnez	v0,9d002250 <.LCFI0+0x6c>
9d002244:	34038000 	li	v1,0x8000
9d002248:	3c02bf80 	lui	v0,0xbf80
9d00224c:	ac436008 	sw	v1,24584(v0)
9d002250:	8c820000 	lw	v0,0(a0)
9d002254:	30420001 	andi	v0,v0,0x1
9d002258:	14400009 	bnez	v0,9d002280 <.LCFI0+0x9c>
9d00225c:	240200a0 	li	v0,160
9d002260:	0b40089c 	j	9d002270 <.LCFI0+0x8c>
9d002264:	00000000 	nop
9d002268:	10400005 	beqz	v0,9d002280 <.LCFI0+0x9c>
9d00226c:	00000000 	nop
9d002270:	8c830000 	lw	v1,0(a0)
9d002274:	30630001 	andi	v1,v1,0x1
9d002278:	1060fffb 	beqz	v1,9d002268 <.LCFI0+0x84>
9d00227c:	2442ffff 	addiu	v0,v0,-1
9d002280:	8ca20000 	lw	v0,0(a1)
9d002284:	8fbf0014 	lw	ra,20(sp)
9d002288:	03e00008 	jr	ra
9d00228c:	27bd0018 	addiu	sp,sp,24
9d002290:	8c426800 	lw	v0,26624(v0)
9d002294:	3c05bf80 	lui	a1,0xbf80
9d002298:	24a56830 	addiu	a1,a1,26672
9d00229c:	3c04bf80 	lui	a0,0xbf80
9d0022a0:	0b40088f 	j	9d00223c <.LCFI0+0x58>
9d0022a4:	24846810 	addiu	a0,a0,26640
9d0022a8:	24420000 	addiu	v0,v0,0
9d0022ac:	5040ffde 	beqzl	v0,9d002228 <.LCFI0+0x44>
9d0022b0:	3c02bf80 	lui	v0,0xbf80
9d0022b4:	0c000000 	jal	90000000 <_bmxdudba_address+0x8ffe0000>
9d0022b8:	00000000 	nop
9d0022bc:	0b400885 	j	9d002214 <.LCFI0+0x30>
9d0022c0:	8fbf0014 	lw	ra,20(sp)

Disassembly of section .text.general_exception:

9d0022c4 <_general_exception_context>:
9d0022c4:	27bdffa8 	addiu	sp,sp,-88
9d0022c8:	afa10004 	sw	at,4(sp)
9d0022cc:	afa20008 	sw	v0,8(sp)
9d0022d0:	afa3000c 	sw	v1,12(sp)
9d0022d4:	afa40010 	sw	a0,16(sp)
9d0022d8:	afa50014 	sw	a1,20(sp)
9d0022dc:	afa60018 	sw	a2,24(sp)
9d0022e0:	afa7001c 	sw	a3,28(sp)
9d0022e4:	afa80020 	sw	t0,32(sp)
9d0022e8:	afa90024 	sw	t1,36(sp)
9d0022ec:	afaa0028 	sw	t2,40(sp)
9d0022f0:	afab002c 	sw	t3,44(sp)
9d0022f4:	afac0030 	sw	t4,48(sp)
9d0022f8:	afad0034 	sw	t5,52(sp)
9d0022fc:	afae0038 	sw	t6,56(sp)
9d002300:	afaf003c 	sw	t7,60(sp)
9d002304:	afb80040 	sw	t8,64(sp)
9d002308:	afb90044 	sw	t9,68(sp)
9d00230c:	afbf0048 	sw	ra,72(sp)
9d002310:	00004012 	mflo	t0
9d002314:	afa8004c 	sw	t0,76(sp)
9d002318:	00004010 	mfhi	t0
9d00231c:	afa80050 	sw	t0,80(sp)
9d002320:	3c1a9d00 	lui	k0,0x9d00
9d002324:	275a2818 	addiu	k0,k0,10264
9d002328:	00000000 	nop
9d00232c:	40046800 	mfc0	a0,c0_cause
9d002330:	40056000 	mfc0	a1,c0_status
9d002334:	0340f809 	jalr	k0
9d002338:	00000000 	nop
9d00233c:	8fa80050 	lw	t0,80(sp)
9d002340:	01000011 	mthi	t0
9d002344:	8fa8004c 	lw	t0,76(sp)
9d002348:	01000013 	mtlo	t0
9d00234c:	8fa10004 	lw	at,4(sp)
9d002350:	8fa20008 	lw	v0,8(sp)
9d002354:	8fa3000c 	lw	v1,12(sp)
9d002358:	8fa40010 	lw	a0,16(sp)
9d00235c:	8fa50014 	lw	a1,20(sp)
9d002360:	8fa60018 	lw	a2,24(sp)
9d002364:	8fa7001c 	lw	a3,28(sp)
9d002368:	8fa80020 	lw	t0,32(sp)
9d00236c:	8fa90024 	lw	t1,36(sp)
9d002370:	8faa0028 	lw	t2,40(sp)
9d002374:	8fab002c 	lw	t3,44(sp)
9d002378:	8fac0030 	lw	t4,48(sp)
9d00237c:	8fad0034 	lw	t5,52(sp)
9d002380:	8fae0038 	lw	t6,56(sp)
9d002384:	8faf003c 	lw	t7,60(sp)
9d002388:	8fb80040 	lw	t8,64(sp)
9d00238c:	8fb90044 	lw	t9,68(sp)
9d002390:	8fbf0048 	lw	ra,72(sp)
9d002394:	27bd0058 	addiu	sp,sp,88
9d002398:	000000c0 	ehb
9d00239c:	42000018 	eret

Disassembly of section .text._mon_putc:

9d0023a0 <_mon_putc>:
9d0023a0:	27bdffe8 	addiu	sp,sp,-24

9d0023a4 <.LCFI0>:
9d0023a4:	afbf0014 	sw	ra,20(sp)
9d0023a8:	3c02a000 	lui	v0,0xa000
9d0023ac:	8c420004 	lw	v0,4(v0)
9d0023b0:	1440000a 	bnez	v0,9d0023dc <.LCFI0+0x38>
9d0023b4:	00802821 	move	a1,a0
9d0023b8:	3c020000 	lui	v0,0x0
9d0023bc:	24420000 	addiu	v0,v0,0
9d0023c0:	10400025 	beqz	v0,9d002458 <.LCFI0+0xb4>
9d0023c4:	3c020000 	lui	v0,0x0
9d0023c8:	0c000000 	jal	90000000 <_bmxdudba_address+0x8ffe0000>
9d0023cc:	00000000 	nop
9d0023d0:	8fbf0014 	lw	ra,20(sp)
9d0023d4:	03e00008 	jr	ra
9d0023d8:	27bd0018 	addiu	sp,sp,24
9d0023dc:	24030001 	li	v1,1
9d0023e0:	10430015 	beq	v0,v1,9d002438 <.LCFI0+0x94>
9d0023e4:	3c04bf80 	lui	a0,0xbf80
9d0023e8:	3c04bf80 	lui	a0,0xbf80
9d0023ec:	24846820 	addiu	a0,a0,26656
9d0023f0:	3c02bf80 	lui	v0,0xbf80
9d0023f4:	24426818 	addiu	v0,v0,26648
9d0023f8:	3c06bf80 	lui	a2,0xbf80
9d0023fc:	24c66808 	addiu	a2,a2,26632
9d002400:	3c03bf80 	lui	v1,0xbf80
9d002404:	24636810 	addiu	v1,v1,26640
9d002408:	34078000 	li	a3,0x8000
9d00240c:	acc70000 	sw	a3,0(a2)
9d002410:	24060400 	li	a2,1024
9d002414:	ac460000 	sw	a2,0(v0)
9d002418:	8c620000 	lw	v0,0(v1)
9d00241c:	30420100 	andi	v0,v0,0x100
9d002420:	1040fffd 	beqz	v0,9d002418 <.LCFI0+0x74>
9d002424:	00000000 	nop
9d002428:	ac850000 	sw	a1,0(a0)
9d00242c:	8fbf0014 	lw	ra,20(sp)
9d002430:	03e00008 	jr	ra
9d002434:	27bd0018 	addiu	sp,sp,24
9d002438:	24846020 	addiu	a0,a0,24608
9d00243c:	3c02bf80 	lui	v0,0xbf80
9d002440:	24426018 	addiu	v0,v0,24600
9d002444:	3c06bf80 	lui	a2,0xbf80
9d002448:	24c66008 	addiu	a2,a2,24584
9d00244c:	3c03bf80 	lui	v1,0xbf80
9d002450:	0b400902 	j	9d002408 <.LCFI0+0x64>
9d002454:	24636010 	addiu	v1,v1,24592
9d002458:	24420000 	addiu	v0,v0,0
9d00245c:	5040ffe3 	beqzl	v0,9d0023ec <.LCFI0+0x48>
9d002460:	3c04bf80 	lui	a0,0xbf80
9d002464:	0c000000 	jal	90000000 <_bmxdudba_address+0x8ffe0000>
9d002468:	00000000 	nop
9d00246c:	0b4008f5 	j	9d0023d4 <.LCFI0+0x30>
9d002470:	8fbf0014 	lw	ra,20(sp)

Disassembly of section .text.strlen:

9d002474 <strlen>:
9d002474:	30830003 	andi	v1,a0,0x3
9d002478:	1460001e 	bnez	v1,9d0024f4 <strlen+0x80>
9d00247c:	00801021 	move	v0,a0
9d002480:	8c820000 	lw	v0,0(a0)
9d002484:	3c07fefe 	lui	a3,0xfefe
9d002488:	34e7feff 	ori	a3,a3,0xfeff
9d00248c:	00471821 	addu	v1,v0,a3
9d002490:	00021027 	nor	v0,zero,v0
9d002494:	3c068080 	lui	a2,0x8080
9d002498:	34c68080 	ori	a2,a2,0x8080
9d00249c:	00621824 	and	v1,v1,v0
9d0024a0:	00661824 	and	v1,v1,a2
9d0024a4:	14600013 	bnez	v1,9d0024f4 <strlen+0x80>
9d0024a8:	00801021 	move	v0,a0
9d0024ac:	24420004 	addiu	v0,v0,4
9d0024b0:	8c430000 	lw	v1,0(v0)
9d0024b4:	00672821 	addu	a1,v1,a3
9d0024b8:	00031827 	nor	v1,zero,v1
9d0024bc:	00a31824 	and	v1,a1,v1
9d0024c0:	00661824 	and	v1,v1,a2
9d0024c4:	5460000c 	bnezl	v1,9d0024f8 <strlen+0x84>
9d0024c8:	80430000 	lb	v1,0(v0)
9d0024cc:	24420004 	addiu	v0,v0,4
9d0024d0:	8c430000 	lw	v1,0(v0)
9d0024d4:	00672821 	addu	a1,v1,a3
9d0024d8:	00031827 	nor	v1,zero,v1
9d0024dc:	00a31824 	and	v1,a1,v1
9d0024e0:	00661824 	and	v1,v1,a2
9d0024e4:	5060fff2 	beqzl	v1,9d0024b0 <strlen+0x3c>
9d0024e8:	24420004 	addiu	v0,v0,4
9d0024ec:	0b40093e 	j	9d0024f8 <strlen+0x84>
9d0024f0:	80430000 	lb	v1,0(v0)
9d0024f4:	80430000 	lb	v1,0(v0)
9d0024f8:	5460fffe 	bnezl	v1,9d0024f4 <strlen+0x80>
9d0024fc:	24420001 	addiu	v0,v0,1
9d002500:	03e00008 	jr	ra
9d002504:	00441023 	subu	v0,v0,a0

Disassembly of section .text:

9d002508 <__pic32_data_init>:
9d002508:	03e01821 	move	v1,ra

9d00250c <_dinit_init>:
9d00250c:	3c089d00 	lui	t0,0x9d00
9d002510:	25081fc4 	addiu	t0,t0,8132
9d002514:	8d090000 	lw	t1,0(t0)
9d002518:	11200018 	beqz	t1,9d00257c <_dinit_end+0x18>
9d00251c:	25080004 	addiu	t0,t0,4
9d002520:	8d0a0000 	lw	t2,0(t0)
9d002524:	25080004 	addiu	t0,t0,4
9d002528:	8d0b0000 	lw	t3,0(t0)
9d00252c:	11600009 	beqz	t3,9d002554 <_dinit_clear>
9d002530:	25080004 	addiu	t0,t0,4

9d002534 <_dinit_copy>:
9d002534:	910c0000 	lbu	t4,0(t0)
9d002538:	254affff 	addiu	t2,t2,-1
9d00253c:	25080001 	addiu	t0,t0,1
9d002540:	a12c0000 	sb	t4,0(t1)
9d002544:	1540fffb 	bnez	t2,9d002534 <_dinit_copy>
9d002548:	25290001 	addiu	t1,t1,1
9d00254c:	10000005 	b	9d002564 <_dinit_end>
9d002550:	00000000 	nop

9d002554 <_dinit_clear>:
9d002554:	a1200000 	sb	zero,0(t1)
9d002558:	254affff 	addiu	t2,t2,-1
9d00255c:	1540fffd 	bnez	t2,9d002554 <_dinit_clear>
9d002560:	25290001 	addiu	t1,t1,1

9d002564 <_dinit_end>:
9d002564:	25080003 	addiu	t0,t0,3
9d002568:	240afffc 	li	t2,-4
9d00256c:	01484024 	and	t0,t2,t0
9d002570:	8d090000 	lw	t1,0(t0)
9d002574:	1520ffe7 	bnez	t1,9d002514 <_dinit_init+0x8>
9d002578:	00000000 	nop
9d00257c:	0060f821 	move	ra,v1
9d002580:	03e00008 	jr	ra
9d002584:	00000000 	nop
9d002588:	00000000 	nop

Disassembly of section .text._fflush_simple:

9d00258c <_fflush_simple>:
9d00258c:	27bdffe8 	addiu	sp,sp,-24
9d002590:	afbf0014 	sw	ra,20(sp)
9d002594:	afb00010 	sw	s0,16(sp)
9d002598:	94820010 	lhu	v0,16(a0)
9d00259c:	30420002 	andi	v0,v0,0x2
9d0025a0:	10400013 	beqz	v0,9d0025f0 <_fflush_simple+0x64>
9d0025a4:	00808021 	move	s0,a0
9d0025a8:	8c850000 	lw	a1,0(a0)
9d0025ac:	04a0000c 	bltz	a1,9d0025e0 <_fflush_simple+0x54>
9d0025b0:	00001021 	move	v0,zero
9d0025b4:	8c82000c 	lw	v0,12(a0)
9d0025b8:	50a20006 	beql	a1,v0,9d0025d4 <_fflush_simple+0x48>
9d0025bc:	8e030008 	lw	v1,8(s0)
9d0025c0:	8c840008 	lw	a0,8(a0)
9d0025c4:	0f4009e1 	jal	9d002784 <_mon_write>
9d0025c8:	00452823 	subu	a1,v0,a1
9d0025cc:	8e02000c 	lw	v0,12(s0)
9d0025d0:	8e030008 	lw	v1,8(s0)
9d0025d4:	ae020000 	sw	v0,0(s0)
9d0025d8:	ae030004 	sw	v1,4(s0)
9d0025dc:	00001021 	move	v0,zero
9d0025e0:	8fbf0014 	lw	ra,20(sp)
9d0025e4:	8fb00010 	lw	s0,16(sp)
9d0025e8:	03e00008 	jr	ra
9d0025ec:	27bd0018 	addiu	sp,sp,24
9d0025f0:	2402ffff 	li	v0,-1
9d0025f4:	ac820004 	sw	v0,4(a0)
9d0025f8:	00001021 	move	v0,zero
9d0025fc:	8fbf0014 	lw	ra,20(sp)
9d002600:	8fb00010 	lw	s0,16(sp)
9d002604:	03e00008 	jr	ra
9d002608:	27bd0018 	addiu	sp,sp,24

Disassembly of section .text._fwrite_simple:

9d00260c <_fwrite_simple>:
9d00260c:	27bdffd8 	addiu	sp,sp,-40
9d002610:	afbf0024 	sw	ra,36(sp)
9d002614:	afb10020 	sw	s1,32(sp)
9d002618:	afb0001c 	sw	s0,28(sp)
9d00261c:	70c58002 	mul	s0,a2,a1
9d002620:	12000007 	beqz	s0,9d002640 <_fwrite_simple+0x34>
9d002624:	00001021 	move	v0,zero
9d002628:	94e30010 	lhu	v1,16(a3)
9d00262c:	30630001 	andi	v1,v1,0x1
9d002630:	10600008 	beqz	v1,9d002654 <_fwrite_simple+0x48>
9d002634:	3c03a000 	lui	v1,0xa000
9d002638:	24040009 	li	a0,9
9d00263c:	ac640008 	sw	a0,8(v1)
9d002640:	8fbf0024 	lw	ra,36(sp)
9d002644:	8fb10020 	lw	s1,32(sp)
9d002648:	8fb0001c 	lw	s0,28(sp)
9d00264c:	03e00008 	jr	ra
9d002650:	27bd0028 	addiu	sp,sp,40
9d002654:	00808821 	move	s1,a0
9d002658:	00e02021 	move	a0,a3
9d00265c:	0f400963 	jal	9d00258c <_fflush_simple>
9d002660:	afa60010 	sw	a2,16(sp)
9d002664:	02202021 	move	a0,s1
9d002668:	0f4009e1 	jal	9d002784 <_mon_write>
9d00266c:	02002821 	move	a1,s0
9d002670:	8fa60010 	lw	a2,16(sp)
9d002674:	00c01021 	move	v0,a2
9d002678:	8fbf0024 	lw	ra,36(sp)
9d00267c:	8fb10020 	lw	s1,32(sp)
9d002680:	8fb0001c 	lw	s0,28(sp)
9d002684:	03e00008 	jr	ra
9d002688:	27bd0028 	addiu	sp,sp,40

Disassembly of section .text.fputs:

9d00268c <fputs>:
9d00268c:	27bdffe0 	addiu	sp,sp,-32
9d002690:	afbf001c 	sw	ra,28(sp)
9d002694:	afb10018 	sw	s1,24(sp)
9d002698:	afb00014 	sw	s0,20(sp)
9d00269c:	00a08021 	move	s0,a1
9d0026a0:	0f40091d 	jal	9d002474 <.LFE0>
9d0026a4:	00808821 	move	s1,a0
9d0026a8:	8e030018 	lw	v1,24(s0)
9d0026ac:	02202021 	move	a0,s1
9d0026b0:	00402821 	move	a1,v0
9d0026b4:	8c62000c 	lw	v0,12(v1)
9d0026b8:	24060001 	li	a2,1
9d0026bc:	0040f809 	jalr	v0
9d0026c0:	02003821 	move	a3,s0
9d0026c4:	38420001 	xori	v0,v0,0x1
9d0026c8:	0002102b 	sltu	v0,zero,v0
9d0026cc:	00021023 	negu	v0,v0
9d0026d0:	8fbf001c 	lw	ra,28(sp)
9d0026d4:	8fb10018 	lw	s1,24(sp)
9d0026d8:	8fb00014 	lw	s0,20(sp)
9d0026dc:	03e00008 	jr	ra
9d0026e0:	27bd0020 	addiu	sp,sp,32

Disassembly of section .text.main_entry:

9d0026e4 <_main_entry>:
9d0026e4:	3c040000 	lui	a0,0x0
9d0026e8:	27bdffe8 	addiu	sp,sp,-24
9d0026ec:	24840000 	addiu	a0,a0,0
9d0026f0:	10800003 	beqz	a0,9d002700 <_main_entry+0x1c>
9d0026f4:	afbf0014 	sw	ra,20(sp)
9d0026f8:	0080f809 	jalr	a0
9d0026fc:	00000000 	nop
9d002700:	30840000 	andi	a0,a0,0x0
9d002704:	30a50000 	andi	a1,a1,0x0
9d002708:	3c089d00 	lui	t0,0x9d00
9d00270c:	25082950 	addiu	t0,t0,10576
9d002710:	0100f809 	jalr	t0
9d002714:	00000000 	nop

9d002718 <__crt0_exit>:
9d002718:	3c020000 24420000 10400003 00000000     ...<..B$..@.....
9d002728:	0040f809 00000000 1000fff9 00000000     ..@.............

Disassembly of section .text.puts:

9d002738 <puts>:
9d002738:	27bdffe8 	addiu	sp,sp,-24
9d00273c:	afbf0014 	sw	ra,20(sp)
9d002740:	afb00010 	sw	s0,16(sp)
9d002744:	3c10a000 	lui	s0,0xa000
9d002748:	8e020000 	lw	v0,0(s0)
9d00274c:	0f4009a3 	jal	9d00268c <fputs>
9d002750:	8c450004 	lw	a1,4(v0)
9d002754:	04400009 	bltz	v0,9d00277c <puts+0x44>
9d002758:	3c049d00 	lui	a0,0x9d00
9d00275c:	8e020000 	lw	v0,0(s0)
9d002760:	248429d4 	addiu	a0,a0,10708
9d002764:	0f4009a3 	jal	9d00268c <fputs>
9d002768:	8c450004 	lw	a1,4(v0)
9d00276c:	8fbf0014 	lw	ra,20(sp)
9d002770:	8fb00010 	lw	s0,16(sp)
9d002774:	03e00008 	jr	ra
9d002778:	27bd0018 	addiu	sp,sp,24
9d00277c:	0b4009db 	j	9d00276c <puts+0x34>
9d002780:	2402ffff 	li	v0,-1

Disassembly of section .text._mon_write:

9d002784 <_mon_write>:
9d002784:	27bdffe0 	addiu	sp,sp,-32

9d002788 <.LCFI0>:
9d002788:	afbf001c 	sw	ra,28(sp)
9d00278c:	afb10018 	sw	s1,24(sp)
9d002790:	afb00014 	sw	s0,20(sp)
9d002794:	10800009 	beqz	a0,9d0027bc <.LCFI0+0x34>
9d002798:	00808021 	move	s0,a0
9d00279c:	10a00007 	beqz	a1,9d0027bc <.LCFI0+0x34>
9d0027a0:	00a08821 	move	s1,a1
9d0027a4:	82040000 	lb	a0,0(s0)
9d0027a8:	2631ffff 	addiu	s1,s1,-1
9d0027ac:	0f4008e8 	jal	9d0023a0 <_mon_putc>
9d0027b0:	26100001 	addiu	s0,s0,1
9d0027b4:	5620fffc 	bnezl	s1,9d0027a8 <.LCFI0+0x20>
9d0027b8:	82040000 	lb	a0,0(s0)
9d0027bc:	8fbf001c 	lw	ra,28(sp)
9d0027c0:	8fb10018 	lw	s1,24(sp)
9d0027c4:	8fb00014 	lw	s0,20(sp)
9d0027c8:	03e00008 	jr	ra
9d0027cc:	27bd0020 	addiu	sp,sp,32

Disassembly of section .text._bootstrap_exception_handler:

9d0027d0 <_bootstrap_exception_handler>:
9d0027d0:	3c020000 	lui	v0,0x0
9d0027d4:	24420000 	addiu	v0,v0,0
9d0027d8:	10400005 	beqz	v0,9d0027f0 <_bootstrap_exception_handler+0x20>
9d0027dc:	3c020000 	lui	v0,0x0
9d0027e0:	24420000 	addiu	v0,v0,0
9d0027e4:	10400003 	beqz	v0,9d0027f4 <_bootstrap_exception_handler+0x24>
9d0027e8:	3c029d00 	lui	v0,0x9d00
9d0027ec:	7000003f 	sdbbp
9d0027f0:	3c029d00 	lui	v0,0x9d00
9d0027f4:	244228a8 	addiu	v0,v0,10408
9d0027f8:	10400005 	beqz	v0,9d002810 <.LCFI2>
9d0027fc:	00000000 	nop
9d002800:	27bdffe8 	addiu	sp,sp,-24

9d002804 <.LCFI0>:
9d002804:	afbf0014 	sw	ra,20(sp)
9d002808:	0040f809 	jalr	v0
9d00280c:	00000000 	nop

9d002810 <.LCFI2>:
9d002810:	0b400a04 	j	9d002810 <.LCFI2>
9d002814:	00000000 	nop

Disassembly of section .text._general_exception_handler:

9d002818 <_general_exception_handler>:
9d002818:	3c020000 	lui	v0,0x0
9d00281c:	24420000 	addiu	v0,v0,0
9d002820:	10400005 	beqz	v0,9d002838 <_general_exception_handler+0x20>
9d002824:	3c020000 	lui	v0,0x0
9d002828:	24420000 	addiu	v0,v0,0
9d00282c:	10400003 	beqz	v0,9d00283c <_general_exception_handler+0x24>
9d002830:	3c029d00 	lui	v0,0x9d00
9d002834:	7000003f 	sdbbp
9d002838:	3c029d00 	lui	v0,0x9d00
9d00283c:	244228a8 	addiu	v0,v0,10408
9d002840:	10400005 	beqz	v0,9d002858 <.LCFI2>
9d002844:	00000000 	nop
9d002848:	27bdffe8 	addiu	sp,sp,-24

9d00284c <.LCFI0>:
9d00284c:	afbf0014 	sw	ra,20(sp)
9d002850:	0040f809 	jalr	v0
9d002854:	00000000 	nop

9d002858 <.LCFI2>:
9d002858:	0b400a16 	j	9d002858 <.LCFI2>
9d00285c:	00000000 	nop

Disassembly of section .vector_default:

9d002860 <_DefaultInterrupt>:
9d002860:	3c020000 	lui	v0,0x0
9d002864:	24420000 	addiu	v0,v0,0
9d002868:	10400007 	beqz	v0,9d002888 <_DefaultInterrupt+0x28>
9d00286c:	3c020000 	lui	v0,0x0
9d002870:	24420000 	addiu	v0,v0,0
9d002874:	50400005 	beqzl	v0,9d00288c <_DefaultInterrupt+0x2c>
9d002878:	3c029d00 	lui	v0,0x9d00
9d00287c:	7000003f 	sdbbp
9d002880:	03e00008 	jr	ra
9d002884:	00000000 	nop
9d002888:	3c029d00 	lui	v0,0x9d00
9d00288c:	244228a8 	addiu	v0,v0,10408
9d002890:	10400003 	beqz	v0,9d0028a0 <_DefaultInterrupt+0x40>
9d002894:	00000000 	nop
9d002898:	0040f809 	jalr	v0
9d00289c:	00000000 	nop
9d0028a0:	03e00008 	jr	ra
9d0028a4:	00000000 	nop

Disassembly of section .text:

9d0028a8 <__pic32_software_reset>:
9d0028a8:	41606000 	di
9d0028ac:	000000c0 	ehb
9d0028b0:	3c03aa99 	lui	v1,0xaa99
9d0028b4:	3c02bf81 	lui	v0,0xbf81
9d0028b8:	24636655 	addiu	v1,v1,26197
9d0028bc:	ac40f230 	sw	zero,-3536(v0)
9d0028c0:	ac43f230 	sw	v1,-3536(v0)
9d0028c4:	3c035566 	lui	v1,0x5566
9d0028c8:	346399aa 	ori	v1,v1,0x99aa
9d0028cc:	ac43f230 	sw	v1,-3536(v0)
9d0028d0:	3c02bf81 	lui	v0,0xbf81
9d0028d4:	24030001 	li	v1,1
9d0028d8:	ac43f618 	sw	v1,-2536(v0)
9d0028dc:	3c02bf81 	lui	v0,0xbf81
9d0028e0:	8c42f610 	lw	v0,-2544(v0)
9d0028e4:	0b400a2c 	j	9d0028b0 <__pic32_software_reset+0x8>
9d0028e8:	00000000 	nop

Disassembly of section .text._filbuf_simple:

9d0028ec <_filbuf_simple>:
9d0028ec:	8c820004 	lw	v0,4(a0)
9d0028f0:	2403ffff 	li	v1,-1
9d0028f4:	10430003 	beq	v0,v1,9d002904 <_filbuf_simple+0x18>
9d0028f8:	ac800000 	sw	zero,0(a0)
9d0028fc:	03e00008 	jr	ra
9d002900:	ac830004 	sw	v1,4(a0)
9d002904:	27bdffe8 	addiu	sp,sp,-24
9d002908:	afbf0014 	sw	ra,20(sp)
9d00290c:	0f400878 	jal	9d0021e0 <_mon_getc>
9d002910:	24040001 	li	a0,1
9d002914:	8fbf0014 	lw	ra,20(sp)
9d002918:	03e00008 	jr	ra
9d00291c:	27bd0018 	addiu	sp,sp,24

Disassembly of section .text._fsync_simple:

9d002920 <_fsync_simple>:
9d002920:	94830010 	lhu	v1,16(a0)
9d002924:	00a32824 	and	a1,a1,v1
9d002928:	10a00007 	beqz	a1,9d002948 <_fsync_simple+0x28>
9d00292c:	24020001 	li	v0,1
9d002930:	34630040 	ori	v1,v1,0x40
9d002934:	a4830010 	sh	v1,16(a0)
9d002938:	24030009 	li	v1,9
9d00293c:	3c02a000 	lui	v0,0xa000
9d002940:	ac430008 	sw	v1,8(v0)
9d002944:	00001021 	move	v0,zero
9d002948:	03e00008 	jr	ra
9d00294c:	00000000 	nop

Disassembly of section .text:

9d002950 <main>:
#include<stdio.h>
int main(void){
9d002950:	27bdffe8 	addiu	sp,sp,-24
9d002954:	afbf0014 	sw	ra,20(sp)
	printf("Hello world!\n");
9d002958:	3c049d00 	lui	a0,0x9d00
9d00295c:	0f4009ce 	jal	9d002738 <puts>
9d002960:	248429b4 	addiu	a0,a0,10676

9d002964 <.LVL0>:
	return 0;
9d002964:	00001021 	move	v0,zero
9d002968:	8fbf0014 	lw	ra,20(sp)
9d00296c:	03e00008 	jr	ra
9d002970:	27bd0018 	addiu	sp,sp,24

9d002974 <_nmi_handler>:
9d002974:	401a6000 	mfc0	k0,c0_status
9d002978:	3c1bffbf 	lui	k1,0xffbf
9d00297c:	377bffff 	ori	k1,k1,0xffff
9d002980:	035bd024 	and	k0,k0,k1
9d002984:	409a6000 	mtc0	k0,c0_status
9d002988:	42000018 	eret

Disassembly of section .rodata:

9d00298c <_io_funcs>:
9d00298c:	9d0028ec 9d0020e4 9d00258c 9d00260c     .(... ...%...&..
9d00299c:	9d002920                                 )..

Disassembly of section .text._io_exit:

9d0029a0 <_io_exit>:
9d0029a0:	3c02a000 	lui	v0,0xa000
9d0029a4:	8c420000 	lw	v0,0(v0)
9d0029a8:	24030001 	li	v1,1
9d0029ac:	03e00008 	jr	ra
9d0029b0:	ac430038 	sw	v1,56(v0)

Disassembly of section .rodata:

9d0029b4 <.LC0>:
9d0029b4:	6c6c6548 	0x6c6c6548
9d0029b8:	6f77206f 	0x6f77206f
9d0029bc:	21646c72 	addi	a0,t3,27762
9d0029c0:	00000000 	nop

Disassembly of section .text._on_reset:

9d0029c4 <_on_reset>:
9d0029c4:	03e00008 	jr	ra
9d0029c8:	00000000 	nop

Disassembly of section .text._on_bootstrap:

9d0029cc <_on_bootstrap>:
9d0029cc:	03e00008 	jr	ra
9d0029d0:	00000000 	nop

Disassembly of section .rodata:

9d0029d4 <.rodata>:
9d0029d4:	0000000a 	movz	zero,zero,zero
